; Function Attrs: mustprogress nounwind uwtable
define dso_local noalias noundef nonnull ptr @_ZN4llvm18createMCSymbolizerERKNS_6TripleEPFiPvmmmmiS3_EPFPKcS3_mPmmPS7_ES3_PNS_9MCContextEOSt10unique_ptrINS_16MCRelocationInfoESt14default_deleteISF_EE(ptr nocapture noundef nonnull readnone align 8 dereferenceable(56) %0, ptr noundef %1, ptr noundef %2, ptr noundef %3, ptr noundef %4, ptr nocapture noundef nonnull align 8 dereferenceable(8) %5) local_unnamed_addr #0 {
_ZNSt10unique_ptrIN4llvm16MCRelocationInfoESt14default_deleteIS1_EED2Ev.exit:
  %6 = tail call noalias noundef nonnull dereferenceable(48) ptr @_Znwm(i64 noundef 48) #9
  %7 = load i64, ptr %5, align 8
  store ptr null, ptr %5, align 8
  %8 = getelementptr inbounds nuw i8, ptr %6, i64 8
  store ptr %4, ptr %8, align 8
  %9 = getelementptr inbounds nuw i8, ptr %6, i64 16
  store i64 %7, ptr %9, align 8
  store ptr getelementptr inbounds inrange(-16, 40) (i8, ptr @_ZTVN4llvm20MCExternalSymbolizerE, i64 16), ptr %6, align 8
  %10 = getelementptr inbounds nuw i8, ptr %6, i64 24
  store ptr %1, ptr %10, align 8
  %11 = getelementptr inbounds nuw i8, ptr %6, i64 32
  store ptr %2, ptr %11, align 8
  %12 = getelementptr inbounds nuw i8, ptr %6, i64 40
  store ptr %3, ptr %12, align 8
  ret ptr %6
}